Certificate:
    Data:
        Version: 3 (0x2)
        Serial Number: 18381460260087993735 (0xff1810b7a7811587)
    Signature Algorithm: sha256WithRSAEncryption
        Issuer: C=CZ, ST=Czech Republic, O=Ares, CN=simpsons
        Validity
            Not Before: Feb 12 13:44:02 2016 GMT
            Not After : Feb  9 13:44:02 2026 GMT
        Subject: C=CZ, ST=Czech Republic, O=Ares, CN=simpsons
        Subject Public Key Info:
            Public Key Algorithm: rsaEncryption
                Public-Key: (2048 bit)
                Modulus:
                    00:de:0b:80:45:c2:d1:40:e1:dd:88:df:39:fe:22:
                    97:63:b6:18:91:26:f6:bc:e7:3f:90:5b:c8:e5:a9:
                    5f:a9:88:24:ef:4b:49:d9:2e:ce:0d:2b:13:b8:60:
                    27:89:32:3a:e4:bf:27:0a:b5:e9:af:14:97:8a:f7:
                    89:9a:f1:b3:0e:0f:98:fe:87:dc:4c:fd:2b:25:d0:
                    c5:b0:18:4f:01:d8:a9:01:c4:d9:b0:84:b9:50:6c:
                    78:9c:b4:59:c9:be:6b:28:20:53:1a:5c:45:83:7e:
                    95:3a:aa:ab:83:20:fb:9b:00:ef:1f:b6:c0:cf:11:
                    e3:dd:34:91:77:50:b1:0c:b7:91:d6:2a:81:7f:39:
                    60:c6:83:85:05:f4:62:ec:53:62:bb:1f:b1:a9:82:
                    d7:04:15:ee:41:1d:42:9a:70:ad:07:2f:0b:e7:bf:
                    e6:f0:02:2b:57:aa:f0:9a:a8:10:6f:d0:9f:ab:eb:
                    e6:7b:58:73:88:51:11:8d:1a:82:e7:73:b2:5e:9d:
                    b9:89:13:52:92:31:7c:f2:3f:b8:b3:8e:ad:bd:47:
                    48:15:ef:d7:26:28:2f:17:04:db:4c:34:72:20:82:
                    84:2f:5c:8c:7f:1c:ad:45:ed:72:cb:85:8c:d2:0b:
                    03:8f:78:ce:56:6c:71:5d:ac:94:eb:6c:25:29:db:
                    91:99
                Exponent: 65537 (0x10001)
        X509v3 extensions:
            X509v3 Subject Key Identifier: 
                D7:69:B9:2D:2C:9E:00:F4:09:2D:E0:3D:E0:A3:9F:E2:A9:5D:35:1A
            X509v3 Authority Key Identifier: 
                keyid:D7:69:B9:2D:2C:9E:00:F4:09:2D:E0:3D:E0:A3:9F:E2:A9:5D:35:1A

            X509v3 Basic Constraints: 
                CA:TRUE
    Signature Algorithm: sha256WithRSAEncryption
         c0:87:fc:40:ed:36:7e:c7:51:12:f2:27:55:c5:24:97:72:9d:
         33:2c:f4:75:91:8d:f7:c5:30:e8:0a:14:81:cb:c2:1c:c7:02:
         03:44:13:20:c1:0a:a9:a3:3b:ad:85:3a:b3:5c:5a:cc:d5:4b:
         ad:89:cf:ad:4e:31:ee:8d:84:69:ba:d6:a8:59:30:f9:a7:e1:
         ae:f3:ac:09:4d:cb:cf:c8:c1:37:ef:c1:b0:af:76:d4:56:ad:
         9a:54:a0:ff:4f:ea:10:12:fe:91:13:5d:a2:86:72:6c:e3:a3:
         e0:ef:9e:55:ce:3d:61:7c:94:c8:9e:db:5f:0a:60:31:b8:f0:
         b2:54:47:70:f7:85:5e:9f:4d:82:83:b3:70:fa:69:bc:5b:0c:
         fc:5c:63:b9:6c:ea:b7:a5:60:7b:5d:d7:1f:73:f6:be:a7:5f:
         3f:05:75:9c:2b:76:20:a5:1d:6d:77:90:9a:18:f9:35:4b:9a:
         3c:8c:8d:74:5b:b1:80:dc:b9:3d:9c:36:32:1a:8e:cd:21:56:
         86:09:97:65:0d:f4:b7:89:b7:23:72:48:9d:d7:89:b7:cd:7f:
         c8:bc:a2:41:7b:cb:03:ad:ad:f4:e0:02:da:b8:ae:67:44:01:
         2d:80:b3:c7:fe:3e:62:73:7e:c8:db:11:30:2e:a8:11:52:70:
         37:ac:d2:fd
-----BEGIN CERTIFICATE-----
MIIDYzCCAkugAwIBAgIJAP8YELengRWHMA0GCSqGSIb3DQEBCwUAMEgxCzAJBgNV
BAYTAkNaMRcwFQYDVQQIDA5DemVjaCBSZXB1YmxpYzENMAsGA1UECgwEQXJlczER
MA8GA1UEAwwIc2ltcHNvbnMwHhcNMTYwMjEyMTM0NDAyWhcNMjYwMjA5MTM0NDAy
WjBIMQswCQYDVQQGEwJDWjEXMBUGA1UECAwOQ3plY2ggUmVwdWJsaWMxDTALBgNV
BAoMBEFyZXMxETAPBgNVBAMMCHNpbXBzb25zMIIBIjANBgkqhkiG9w0BAQEFAAOC
AQ8AMIIBCgKCAQEA3guARcLRQOHdiN85/iKXY7YYkSb2vOc/kFvI5alfqYgk70tJ
2S7ODSsTuGAniTI65L8nCrXprxSXiveJmvGzDg+Y/ofcTP0rJdDFsBhPAdipAcTZ
sIS5UGx4nLRZyb5rKCBTGlxFg36VOqqrgyD7mwDvH7bAzxHj3TSRd1CxDLeR1iqB
fzlgxoOFBfRi7FNiux+xqYLXBBXuQR1CmnCtBy8L57/m8AIrV6rwmqgQb9Cfq+vm
e1hziFERjRqC53OyXp25iRNSkjF88j+4s46tvUdIFe/XJigvFwTbTDRyIIKEL1yM
fxytRe1yy4WM0gsDj3jOVmxxXayU62wlKduRmQIDAQABo1AwTjAdBgNVHQ4EFgQU
12m5LSyeAPQJLeA94KOf4qldNRowHwYDVR0jBBgwFoAU12m5LSyeAPQJLeA94KOf
4qldNRowDAYDVR0TBAUwAwEB/zANBgkqhkiG9w0BAQsFAAOCAQEAwIf8QO02fsdR
EvInVcUkl3KdMyz0dZGN98Uw6AoUgcvCHMcCA0QTIMEKqaM7rYU6s1xazNVLrYnP
rU4x7o2EabrWqFkw+afhrvOsCU3Lz8jBN+/BsK921FatmlSg/0/qEBL+kRNdooZy
bOOj4O+eVc49YXyUyJ7bXwpgMbjwslRHcPeFXp9NgoOzcPppvFsM/FxjuWzqt6Vg
e13XH3P2vqdfPwV1nCt2IKUdbXeQmhj5NUuaPIyNdFuxgNy5PZw2MhqOzSFWhgmX
ZQ30t4m3I3JIndeJt81/yLyiQXvLA62t9OAC2riuZ0QBLYCzx/4+YnN+yNsRMC6o
EVJwN6zS/Q==
-----END CERTIFICATE-----
