Certificate:
    Data:
        Version: 3 (0x2)
        Serial Number: 18381460260087993736 (0xff1810b7a7811588)
    Signature Algorithm: sha256WithRSAEncryption
        Issuer: C=CZ, ST=Czech Republic, O=Ares, CN=simpsons
        Validity
            Not Before: Feb 12 13:51:43 2016 GMT
            Not After : Feb  9 13:51:43 2026 GMT
        Subject: C=CZ, ST=Czech Republic, L=Brno, O=Ares, CN=foreman.example.tst
        Subject Public Key Info:
            Public Key Algorithm: rsaEncryption
                Public-Key: (2048 bit)
                Modulus:
                    00:d1:64:0e:88:55:57:7c:2a:64:2f:ea:96:a4:2f:
                    f5:ee:ed:5b:18:12:72:0e:fd:a2:fa:f9:5a:1c:5b:
                    24:29:d7:39:93:49:41:a6:8c:a2:21:fd:49:87:9a:
                    a2:c1:03:fa:6e:d5:85:53:1d:1e:38:70:7e:f1:49:
                    48:81:22:bb:c8:13:1b:8a:25:77:ac:21:6e:d1:67:
                    c5:08:ef:5f:08:e7:db:7d:86:0d:68:2f:0d:16:64:
                    80:d9:ed:41:09:b6:42:8d:e6:1e:7f:30:67:39:fb:
                    21:06:37:91:11:4b:66:38:15:7a:3a:f6:3e:b9:8e:
                    47:46:59:c1:de:23:c9:4e:19:55:0c:47:ea:f7:25:
                    4a:ff:eb:c4:9e:0f:5a:d5:23:5f:66:ee:6c:e0:f9:
                    73:82:64:90:76:ad:32:16:a8:9e:43:da:40:09:ec:
                    24:bd:e6:c9:e2:9c:dc:eb:f4:ab:eb:97:a1:45:38:
                    5e:2b:d1:b4:5b:53:15:49:cb:c3:11:c3:5c:0c:89:
                    c7:ea:45:3a:69:94:71:50:38:16:ef:22:13:08:1c:
                    10:9e:e4:49:28:ac:8b:0d:5b:64:2e:35:69:13:c8:
                    d7:18:05:99:3c:4a:fd:42:95:a2:dd:31:52:e0:94:
                    c9:fe:5e:ad:48:90:a1:bb:df:eb:30:a7:25:8e:c3:
                    75:69
                Exponent: 65537 (0x10001)
        X509v3 extensions:
            X509v3 Basic Constraints: 
                CA:FALSE
            Netscape Comment: 
                OpenSSL Generated Certificate
            X509v3 Subject Key Identifier: 
                9E:52:17:6A:36:C2:8B:81:F1:54:A6:E5:D8:C8:4D:6A:97:4A:E7:3B
            X509v3 Authority Key Identifier: 
                keyid:D7:69:B9:2D:2C:9E:00:F4:09:2D:E0:3D:E0:A3:9F:E2:A9:5D:35:1A

    Signature Algorithm: sha256WithRSAEncryption
         1c:b3:6f:72:87:3a:68:43:11:87:ec:b0:e1:41:02:d2:75:b3:
         cc:05:21:fa:20:fb:f0:b8:c5:7e:01:15:9c:d4:7b:fb:ca:9c:
         03:fa:6d:69:d5:5b:33:9c:98:25:33:98:bf:c6:64:2f:a5:22:
         93:89:7c:5c:24:42:71:95:f9:54:f1:ea:49:e1:2b:fd:b5:1b:
         05:bd:5a:d9:d6:1d:ae:00:21:f0:d2:37:68:15:bc:db:55:0f:
         49:6e:66:dd:71:8d:0b:fe:5a:95:66:9c:77:ee:31:6e:9f:bf:
         3e:bb:48:19:4a:9f:c1:0e:a4:36:85:e7:fe:c8:05:71:6d:3c:
         79:b1:6b:e4:18:a3:9b:cb:98:30:a0:1d:4b:81:0a:06:ce:3d:
         79:aa:80:07:8f:64:7b:f5:02:e4:8d:87:49:fe:2f:c8:a3:05:
         0f:16:fc:02:e3:47:c2:9e:b7:41:cf:d8:a7:39:3f:59:5d:1d:
         25:42:bb:fd:af:2d:fb:63:ec:a1:02:57:c3:64:55:14:30:d5:
         48:83:a4:e7:a0:70:ed:54:e6:3c:ba:4d:e4:8d:29:04:6f:3f:
         93:d1:16:6c:fa:36:2a:19:1b:5d:a3:11:ec:20:25:fd:c6:9e:
         e7:89:5e:32:88:65:b4:be:2a:55:40:ad:7d:1c:8f:f9:5e:e1:
         92:79:f1:53
-----BEGIN CERTIFICATE-----
MIIDqDCCApCgAwIBAgIJAP8YELengRWIMA0GCSqGSIb3DQEBCwUAMEgxCzAJBgNV
BAYTAkNaMRcwFQYDVQQIDA5DemVjaCBSZXB1YmxpYzENMAsGA1UECgwEQXJlczER
MA8GA1UEAwwIc2ltcHNvbnMwHhcNMTYwMjEyMTM1MTQzWhcNMjYwMjA5MTM1MTQz
WjBiMQswCQYDVQQGEwJDWjEXMBUGA1UECAwOQ3plY2ggUmVwdWJsaWMxDTALBgNV
BAcMBEJybm8xDTALBgNVBAoMBEFyZXMxHDAaBgNVBAMME2ZvcmVtYW4uZXhhbXBs
ZS50c3QwggEiMA0GCSqGSIb3DQEBAQUAA4IBDwAwggEKAoIBAQDRZA6IVVd8KmQv
6pakL/Xu7VsYEnIO/aL6+VocWyQp1zmTSUGmjKIh/UmHmqLBA/pu1YVTHR44cH7x
SUiBIrvIExuKJXesIW7RZ8UI718I59t9hg1oLw0WZIDZ7UEJtkKN5h5/MGc5+yEG
N5ERS2Y4FXo69j65jkdGWcHeI8lOGVUMR+r3JUr/68SeD1rVI19m7mzg+XOCZJB2
rTIWqJ5D2kAJ7CS95sninNzr9Kvrl6FFOF4r0bRbUxVJy8MRw1wMicfqRTpplHFQ
OBbvIhMIHBCe5EkorIsNW2QuNWkTyNcYBZk8Sv1ClaLdMVLglMn+Xq1IkKG73+sw
pyWOw3VpAgMBAAGjezB5MAkGA1UdEwQCMAAwLAYJYIZIAYb4QgENBB8WHU9wZW5T
U0wgR2VuZXJhdGVkIENlcnRpZmljYXRlMB0GA1UdDgQWBBSeUhdqNsKLgfFUpuXY
yE1ql0rnOzAfBgNVHSMEGDAWgBTXabktLJ4A9Akt4D3go5/iqV01GjANBgkqhkiG
9w0BAQsFAAOCAQEAHLNvcoc6aEMRh+yw4UEC0nWzzAUh+iD78LjFfgEVnNR7+8qc
A/ptadVbM5yYJTOYv8ZkL6Uik4l8XCRCcZX5VPHqSeEr/bUbBb1a2dYdrgAh8NI3
aBW821UPSW5m3XGNC/5alWacd+4xbp+/PrtIGUqfwQ6kNoXn/sgFcW08ebFr5Bij
m8uYMKAdS4EKBs49eaqAB49ke/UC5I2HSf4vyKMFDxb8AuNHwp63Qc/Ypzk/WV0d
JUK7/a8t+2PsoQJXw2RVFDDVSIOk56Bw7VTmPLpN5I0pBG8/k9EWbPo2KhkbXaMR
7CAl/cae54leMohltL4qVUCtfRyP+V7hknnxUw==
-----END CERTIFICATE-----
