Certificate:
    Data:
        Version: 3 (0x2)
        Serial Number: 18381460260087993737 (0xff1810b7a7811589)
    Signature Algorithm: sha256WithRSAEncryption
        Issuer: C=CZ, ST=Czech Republic, O=Ares, CN=simpsons
        Validity
            Not Before: May  3 12:18:14 2016 GMT
            Not After : May  1 12:18:14 2026 GMT
        Subject: C=CZ, ST=Czech Republic, L=Brno, O=Ares, CN=*.example.tst
        Subject Public Key Info:
            Public Key Algorithm: rsaEncryption
                Public-Key: (2048 bit)
                Modulus:
                    00:96:d0:c6:91:00:31:9b:c5:9f:13:3e:ab:73:8d:
                    0a:f5:ff:8a:ef:d1:69:fa:9f:2a:87:75:1f:2e:a1:
                    c0:35:e6:aa:8f:aa:da:79:f6:5e:ca:e6:7b:72:2c:
                    01:c4:e4:26:d4:4c:d2:e9:ac:d6:6d:0f:f3:a7:fd:
                    23:71:2e:f1:b8:2a:56:b3:23:2b:ff:c4:63:ed:f2:
                    7d:74:34:be:03:f9:98:c2:5b:13:ff:4d:01:dd:53:
                    b4:51:bd:fa:8b:3b:98:f5:3b:9b:99:a2:54:1e:ae:
                    3e:8c:3a:39:dd:88:dc:15:a1:6e:bd:a4:fb:01:c3:
                    eb:78:0d:31:d9:b0:61:f8:20:d0:a8:4a:f7:33:89:
                    f7:37:cc:8d:54:cf:60:23:40:4d:a3:76:b2:d7:cd:
                    c8:73:74:21:40:f0:7f:32:a5:f1:c4:85:01:74:da:
                    76:11:01:74:ce:ce:be:ac:e7:63:74:33:4a:4a:6b:
                    e1:c1:94:58:63:0e:6a:55:f7:a7:98:df:53:75:37:
                    1a:f9:59:a9:0b:f1:a1:b1:dc:e7:02:cb:ce:2d:0e:
                    99:4d:18:0a:72:d3:98:ca:bc:79:ae:b1:88:0d:4a:
                    71:52:62:2b:33:7d:f9:34:65:c2:82:00:06:4a:0a:
                    e6:dc:80:75:88:84:df:4b:d0:34:5b:a7:66:fb:3a:
                    ae:db
                Exponent: 65537 (0x10001)
        X509v3 extensions:
            X509v3 Basic Constraints: 
                CA:FALSE
            Netscape Comment: 
                OpenSSL Generated Certificate
            X509v3 Subject Key Identifier: 
                F5:FF:F6:CF:EC:DC:19:3D:4D:19:CE:72:10:E1:A9:22:BC:AA:2B:10
            X509v3 Authority Key Identifier: 
                keyid:D7:69:B9:2D:2C:9E:00:F4:09:2D:E0:3D:E0:A3:9F:E2:A9:5D:35:1A

    Signature Algorithm: sha256WithRSAEncryption
         73:c5:99:0c:49:47:4d:e1:b3:9c:03:4d:ea:3d:1b:5e:d3:75:
         46:70:48:8d:94:6f:3e:1b:da:f4:9a:fb:c5:4c:e0:1d:c0:96:
         f8:95:c3:36:f4:78:48:f7:41:07:62:4a:15:69:a1:bb:6a:c0:
         9a:6a:08:e2:08:ce:0f:e9:20:42:3d:07:14:ab:1e:92:cd:09:
         9b:92:aa:bc:16:bf:63:86:45:76:7b:7d:6c:b1:7d:b5:06:13:
         cf:ec:49:79:fa:c4:70:fe:45:f9:b0:22:9b:36:52:57:3c:7b:
         80:8c:87:21:52:2d:ab:7a:a0:b8:d3:ed:a1:c2:37:00:36:f2:
         ce:0c:05:d9:b5:11:db:67:ca:e5:9d:ea:9e:01:da:9d:30:69:
         65:4c:b9:a1:d6:a1:4e:cf:53:2d:54:1c:10:c2:e9:e6:4a:8a:
         d1:4b:54:9b:f4:7f:ac:d4:f3:f6:c4:22:f2:79:dc:73:04:5e:
         1e:25:53:8f:5d:57:24:c1:b0:f6:b6:79:69:74:c9:95:5e:68:
         79:1d:43:49:d3:6a:ac:8b:d0:c1:12:40:a1:6e:61:ce:84:c0:
         8a:ad:be:3a:47:8b:40:f5:8a:49:bc:c8:ff:c1:63:70:f7:49:
         68:5b:52:8f:62:16:d2:19:89:79:69:0b:f9:74:53:46:8e:61:
         3e:1b:92:14
-----BEGIN CERTIFICATE-----
MIIDojCCAoqgAwIBAgIJAP8YELengRWJMA0GCSqGSIb3DQEBCwUAMEgxCzAJBgNV
BAYTAkNaMRcwFQYDVQQIDA5DemVjaCBSZXB1YmxpYzENMAsGA1UECgwEQXJlczER
MA8GA1UEAwwIc2ltcHNvbnMwHhcNMTYwNTAzMTIxODE0WhcNMjYwNTAxMTIxODE0
WjBcMQswCQYDVQQGEwJDWjEXMBUGA1UECAwOQ3plY2ggUmVwdWJsaWMxDTALBgNV
BAcMBEJybm8xDTALBgNVBAoMBEFyZXMxFjAUBgNVBAMMDSouZXhhbXBsZS50c3Qw
ggEiMA0GCSqGSIb3DQEBAQUAA4IBDwAwggEKAoIBAQCW0MaRADGbxZ8TPqtzjQr1
/4rv0Wn6nyqHdR8uocA15qqPqtp59l7K5ntyLAHE5CbUTNLprNZtD/On/SNxLvG4
KlazIyv/xGPt8n10NL4D+ZjCWxP/TQHdU7RRvfqLO5j1O5uZolQerj6MOjndiNwV
oW69pPsBw+t4DTHZsGH4INCoSvczifc3zI1Uz2AjQE2jdrLXzchzdCFA8H8ypfHE
hQF02nYRAXTOzr6s52N0M0pKa+HBlFhjDmpV96eY31N1Nxr5WakL8aGx3OcCy84t
DplNGApy05jKvHmusYgNSnFSYiszffk0ZcKCAAZKCubcgHWIhN9L0DRbp2b7Oq7b
AgMBAAGjezB5MAkGA1UdEwQCMAAwLAYJYIZIAYb4QgENBB8WHU9wZW5TU0wgR2Vu
ZXJhdGVkIENlcnRpZmljYXRlMB0GA1UdDgQWBBT1//bP7NwZPU0ZznIQ4akivKor
EDAfBgNVHSMEGDAWgBTXabktLJ4A9Akt4D3go5/iqV01GjANBgkqhkiG9w0BAQsF
AAOCAQEAc8WZDElHTeGznANN6j0bXtN1RnBIjZRvPhva9Jr7xUzgHcCW+JXDNvR4
SPdBB2JKFWmhu2rAmmoI4gjOD+kgQj0HFKseks0Jm5KqvBa/Y4ZFdnt9bLF9tQYT
z+xJefrEcP5F+bAimzZSVzx7gIyHIVItq3qguNPtocI3ADbyzgwF2bUR22fK5Z3q
ngHanTBpZUy5odahTs9TLVQcEMLp5kqK0UtUm/R/rNTz9sQi8nnccwReHiVTj11X
JMGw9rZ5aXTJlV5oeR1DSdNqrIvQwRJAoW5hzoTAiq2+OkeLQPWKSbzI/8FjcPdJ
aFtSj2IW0hmJeWkL+XRTRo5hPhuSFA==
-----END CERTIFICATE-----
