Certificate:
    Data:
        Version: 3 (0x2)
        Serial Number: 18381460260087993737 (0xff1810b7a7811589)
    Signature Algorithm: sha256WithRSAEncryption
        Issuer: C=CZ, ST=Czech Republic, O=Ares, CN=simpsons
        Validity
            Not Before: May  3 12:18:14 2016 GMT
            Not After : May  1 12:18:14 2026 GMT
        Subject: C=CZ, ST=Czech Republic, L=Brno, O=Ares, CN=*.example.tst
        Subject Public Key Info:
            Public Key Algorithm: rsaEncryption
                Public-Key: (2048 bit)
                Modulus:
                    00:96:d0:c6:91:00:31:9b:c5:9f:13:3e:ab:73:8d:
                    0a:f5:ff:8a:ef:d1:69:fa:9f:2a:87:75:1f:2e:a1:
                    c0:35:e6:aa:8f:aa:da:79:f6:5e:ca:e6:7b:72:2c:
                    01:c4:e4:26:d4:4c:d2:e9:ac:d6:6d:0f:f3:a7:fd:
                    23:71:2e:f1:b8:2a:56:b3:23:2b:ff:c4:63:ed:f2:
                    7d:74:34:be:03:f9:98:c2:5b:13:ff:4d:01:dd:53:
                    b4:51:bd:fa:8b:3b:98:f5:3b:9b:99:a2:54:1e:ae:
                    3e:8c:3a:39:dd:88:dc:15:a1:6e:bd:a4:fb:01:c3:
                    eb:78:0d:31:d9:b0:61:f8:20:d0:a8:4a:f7:33:89:
                    f7:37:cc:8d:54:cf:60:23:40:4d:a3:76:b2:d7:cd:
                    c8:73:74:21:40:f0:7f:32:a5:f1:c4:85:01:74:da:
                    76:11:01:74:ce:ce:be:ac:e7:63:74:33:4a:4a:6b:
                    e1:c1:94:58:63:0e:6a:55:f7:a7:98:df:53:75:37:
                    1a:f9:59:a9:0b:f1:a1:b1:dc:e7:02:cb:ce:2d:0e:
                    99:4d:18:0a:72:d3:98:ca:bc:79:ae:b1:88:0d:4a:
                    71:52:62:2b:33:7d:f9:34:65:c2:82:00:06:4a:0a:
                    e6:dc:80:75:88:84:df:4b:d0:34:5b:a7:66:fb:3a:
                    ae:db
                Exponent: 65537 (0x10001)
        X509v3 extensions:
            X509v3 Basic Constraints: 
                CA:FALSE
            Netscape Comment: 
                OpenSSL Generated Certificate
            X509v3 Subject Key Identifier: 
                F5:FF:F6:CF:EC:DC:19:3D:4D:19:CE:72:10:E1:A9:22:BC:AA:2B:10
            X509v3 Authority Key Identifier: 
                keyid:D7:69:B9:2D:2C:9E:00:F4:09:2D:E0:3D:E0:A3:9F:E2:A9:5D:35:1A

    Signature Algorithm: sha256WithRSAEncryption
         73:c5:99:0c:49:47:4d:e1:b3:9c:03:4d:ea:3d:1b:5e:d3:75:
         46:70:48:8d:94:6f:3e:1b:da:f4:9a:fb:c5:4c:e0:1d:c0:96:
         f8:95:c3:36:f4:78:48:f7:41:07:62:4a:15:69:a1:bb:6a:c0:
         9a:6a:08:e2:08:ce:0f:e9:20:42:3d:07:14:ab:1e:92:cd:09:
         9b:92:aa:bc:16:bf:63:86:45:76:7b:7d:6c:b1:7d:b5:06:13:
         cf:ec:49:79:fa:c4:70:fe:45:f9:b0:22:9b:36:52:57:3c:7b:
         80:8c:87:21:52:2d:ab:7a:a0:b8:d3:ed:a1:c2:37:00:36:f2:
         ce:0c:05:d9:b5:11:db:67:ca:e5:9d:ea:9e:01:da:9d:30:69:
         65:4c:b9:a1:d6:a1:4e:cf:53:2d:54:1c:10:c2:e9:e6:4a:8a:
         d1:4b:54:9b:f4:7f:ac:d4:f3:f6:c4:22:f2:79:dc:73:04:5e:
         1e:25:53:8f:5d:57:24:c1:b0:f6:b6:79:69:74:c9:95:5e:68:
         79:1d:43:49:d3:6a:ac:8b:d0:c1:12:40:a1:6e:61:ce:84:c0:
         8a:ad:be:3a:47:8b:40:f5:8a:49:bc:c8:ff:c1:63:70:f7:49:
         68:5b:52:8f:62:16:d2:19:89:79:69:0b:f9:74:53:46:8e:61:
         3e:1b:92:14
-----BEGIN CERTIFICATE-----
MIIDojCCAoqgAwIBAgIJAP8YELengRWJMA0GCSqGSIb3DQEBCwUAMEgxCzAJBgNV
BAYTAkNaMRcwFQYDVQQIDA5DemVjaCBSZXB1YmxpYzENMAsGA1UECgwEQXJlczER
MA8GA1UEAwwIc2ltcHNvbnMwHhcNMTYwNTAzMTIxODE0WhcNMjYwNTAxMTIxODE0
WjBcMQswCQYDVQQGEwJDWjEXMBUGA1UECAwOQ3plY2ggUmVwdWJsaWMxDTALBgNV
BAcMBEJybm8xDTALBgNVBAoMBEFyZXMxFjAUBgNVBAMMDSouZXhhbXBsZS50c3Qw
ggEiMA0GCSqGSIb3DQEBAQUAA4IBDwAwggEKAoIBAQCW0MaRADGbxZ8TPqtzjQr1
/4rv0Wn6nyqHdR8uocA15qqPqtp59l7K5ntyLAHE5CbUTNLprNZtD/On/SNxLvG4
KlazIyv/xGPt8n10NL4D+ZjCWxP/TQHdU7RRvfqLO5j1O5uZolQerj6MOjndiNwV
oW69pPsBw+t4DTHZsGH4INCoSvczifc3zI1Uz2AjQE2jdrLXzchzdCFA8H8ypfHE
hQF02nYRAXTOzr6s52N0M0pKa+HBlFhjDmpV96eY31N1Nxr5WakL8aGx3OcCy84t
DplNGApy05jKvHmusYgNSnFSYiszffk0ZcKCAAZKCubcgHWIhN9L0DRbp2b7Oq7b
AgMBAAGjezB5MAkGA1UdEwQCMAAwLAYJYIZIAYb4QgENBB8WHU9wZW5TU0wgR2Vu
ZXJhdGVkIENlcnRpZmljYXRlMB0GA1UdDgQWBBT1//bP7NwZPU0ZznIQ4akivKor
EDAfBgNVHSMEGDAWgBTXabktLJ4A9Akt4D3go5/iqV01GjANBgkqhkiG9w0BAQsF
AAOCAQEAc8WZDElHTeGznANN6j0bXtN1RnBIjZRvPhva9Jr7xUzgHcCW+JXDNvR4
SPdBB2JKFWmhu2rAmmoI4gjOD+kgQj0HFKseks0Jm5KqvBa/Y4ZFdnt9bLF9tQYT
z+xJefrEcP5F+bAimzZSVzx7gIyHIVItq3qguNPtocI3ADbyzgwF2bUR22fK5Z3q
ngHanTBpZUy5odahTs9TLVQcEMLp5kqK0UtUm/R/rNTz9sQi8nnccwReHiVTj11X
JMGw9rZ5aXTJlV5oeR1DSdNqrIvQwRJAoW5hzoTAiq2+OkeLQPWKSbzI/8FjcPdJ
aFtSj2IW0hmJeWkL+XRTRo5hPhuSFA==
-----END CERTIFICATE-----
Certificate:
    Data:
        Version: 3 (0x2)
        Serial Number: 18381460260087993735 (0xff1810b7a7811587)
    Signature Algorithm: sha256WithRSAEncryption
        Issuer: C=CZ, ST=Czech Republic, O=Ares, CN=simpsons
        Validity
            Not Before: Feb 12 13:44:02 2016 GMT
            Not After : Feb  9 13:44:02 2026 GMT
        Subject: C=CZ, ST=Czech Republic, O=Ares, CN=simpsons
        Subject Public Key Info:
            Public Key Algorithm: rsaEncryption
                Public-Key: (2048 bit)
                Modulus:
                    00:de:0b:80:45:c2:d1:40:e1:dd:88:df:39:fe:22:
                    97:63:b6:18:91:26:f6:bc:e7:3f:90:5b:c8:e5:a9:
                    5f:a9:88:24:ef:4b:49:d9:2e:ce:0d:2b:13:b8:60:
                    27:89:32:3a:e4:bf:27:0a:b5:e9:af:14:97:8a:f7:
                    89:9a:f1:b3:0e:0f:98:fe:87:dc:4c:fd:2b:25:d0:
                    c5:b0:18:4f:01:d8:a9:01:c4:d9:b0:84:b9:50:6c:
                    78:9c:b4:59:c9:be:6b:28:20:53:1a:5c:45:83:7e:
                    95:3a:aa:ab:83:20:fb:9b:00:ef:1f:b6:c0:cf:11:
                    e3:dd:34:91:77:50:b1:0c:b7:91:d6:2a:81:7f:39:
                    60:c6:83:85:05:f4:62:ec:53:62:bb:1f:b1:a9:82:
                    d7:04:15:ee:41:1d:42:9a:70:ad:07:2f:0b:e7:bf:
                    e6:f0:02:2b:57:aa:f0:9a:a8:10:6f:d0:9f:ab:eb:
                    e6:7b:58:73:88:51:11:8d:1a:82:e7:73:b2:5e:9d:
                    b9:89:13:52:92:31:7c:f2:3f:b8:b3:8e:ad:bd:47:
                    48:15:ef:d7:26:28:2f:17:04:db:4c:34:72:20:82:
                    84:2f:5c:8c:7f:1c:ad:45:ed:72:cb:85:8c:d2:0b:
                    03:8f:78:ce:56:6c:71:5d:ac:94:eb:6c:25:29:db:
                    91:99
                Exponent: 65537 (0x10001)
        X509v3 extensions:
            X509v3 Subject Key Identifier: 
                D7:69:B9:2D:2C:9E:00:F4:09:2D:E0:3D:E0:A3:9F:E2:A9:5D:35:1A
            X509v3 Authority Key Identifier: 
                keyid:D7:69:B9:2D:2C:9E:00:F4:09:2D:E0:3D:E0:A3:9F:E2:A9:5D:35:1A

            X509v3 Basic Constraints: 
                CA:TRUE
    Signature Algorithm: sha256WithRSAEncryption
         c0:87:fc:40:ed:36:7e:c7:51:12:f2:27:55:c5:24:97:72:9d:
         33:2c:f4:75:91:8d:f7:c5:30:e8:0a:14:81:cb:c2:1c:c7:02:
         03:44:13:20:c1:0a:a9:a3:3b:ad:85:3a:b3:5c:5a:cc:d5:4b:
         ad:89:cf:ad:4e:31:ee:8d:84:69:ba:d6:a8:59:30:f9:a7:e1:
         ae:f3:ac:09:4d:cb:cf:c8:c1:37:ef:c1:b0:af:76:d4:56:ad:
         9a:54:a0:ff:4f:ea:10:12:fe:91:13:5d:a2:86:72:6c:e3:a3:
         e0:ef:9e:55:ce:3d:61:7c:94:c8:9e:db:5f:0a:60:31:b8:f0:
         b2:54:47:70:f7:85:5e:9f:4d:82:83:b3:70:fa:69:bc:5b:0c:
         fc:5c:63:b9:6c:ea:b7:a5:60:7b:5d:d7:1f:73:f6:be:a7:5f:
         3f:05:75:9c:2b:76:20:a5:1d:6d:77:90:9a:18:f9:35:4b:9a:
         3c:8c:8d:74:5b:b1:80:dc:b9:3d:9c:36:32:1a:8e:cd:21:56:
         86:09:97:65:0d:f4:b7:89:b7:23:72:48:9d:d7:89:b7:cd:7f:
         c8:bc:a2:41:7b:cb:03:ad:ad:f4:e0:02:da:b8:ae:67:44:01:
         2d:80:b3:c7:fe:3e:62:73:7e:c8:db:11:30:2e:a8:11:52:70:
         37:ac:d2:fd
-----BEGIN CERTIFICATE-----
MIIDYzCCAkugAwIBAgIJAP8YELengRWHMA0GCSqGSIb3DQEBCwUAMEgxCzAJBgNV
BAYTAkNaMRcwFQYDVQQIDA5DemVjaCBSZXB1YmxpYzENMAsGA1UECgwEQXJlczER
MA8GA1UEAwwIc2ltcHNvbnMwHhcNMTYwMjEyMTM0NDAyWhcNMjYwMjA5MTM0NDAy
WjBIMQswCQYDVQQGEwJDWjEXMBUGA1UECAwOQ3plY2ggUmVwdWJsaWMxDTALBgNV
BAoMBEFyZXMxETAPBgNVBAMMCHNpbXBzb25zMIIBIjANBgkqhkiG9w0BAQEFAAOC
AQ8AMIIBCgKCAQEA3guARcLRQOHdiN85/iKXY7YYkSb2vOc/kFvI5alfqYgk70tJ
2S7ODSsTuGAniTI65L8nCrXprxSXiveJmvGzDg+Y/ofcTP0rJdDFsBhPAdipAcTZ
sIS5UGx4nLRZyb5rKCBTGlxFg36VOqqrgyD7mwDvH7bAzxHj3TSRd1CxDLeR1iqB
fzlgxoOFBfRi7FNiux+xqYLXBBXuQR1CmnCtBy8L57/m8AIrV6rwmqgQb9Cfq+vm
e1hziFERjRqC53OyXp25iRNSkjF88j+4s46tvUdIFe/XJigvFwTbTDRyIIKEL1yM
fxytRe1yy4WM0gsDj3jOVmxxXayU62wlKduRmQIDAQABo1AwTjAdBgNVHQ4EFgQU
12m5LSyeAPQJLeA94KOf4qldNRowHwYDVR0jBBgwFoAU12m5LSyeAPQJLeA94KOf
4qldNRowDAYDVR0TBAUwAwEB/zANBgkqhkiG9w0BAQsFAAOCAQEAwIf8QO02fsdR
EvInVcUkl3KdMyz0dZGN98Uw6AoUgcvCHMcCA0QTIMEKqaM7rYU6s1xazNVLrYnP
rU4x7o2EabrWqFkw+afhrvOsCU3Lz8jBN+/BsK921FatmlSg/0/qEBL+kRNdooZy
bOOj4O+eVc49YXyUyJ7bXwpgMbjwslRHcPeFXp9NgoOzcPppvFsM/FxjuWzqt6Vg
e13XH3P2vqdfPwV1nCt2IKUdbXeQmhj5NUuaPIyNdFuxgNy5PZw2MhqOzSFWhgmX
ZQ30t4m3I3JIndeJt81/yLyiQXvLA62t9OAC2riuZ0QBLYCzx/4+YnN+yNsRMC6o
EVJwN6zS/Q==
-----END CERTIFICATE-----
